target datalayout = "e-m:e-p270:32:32-p271:32:32-p272:64:64-i64:64-i128:128-f80:128-n8:16:32:64-S128"
target triple = "x86_64-pc-linux-gnu"

%"class.icu_77::RegexCompile" = type { ptr, ptr, ptr, ptr, i64, i8, i8, i8, i64, i64, i32, i32, %"struct.icu_77::RegexCompile::RegexPatternChar", [100 x i16], i32, i32, i32, i8, %"class.icu_77::UnicodeString", i64, %"class.icu_77::UVector32", i32, i32, i32, i32, %"class.icu_77::UStack", %"class.icu_77::UStack", i32, ptr }
%"struct.icu_77::RegexCompile::RegexPatternChar" = type { i32, i8 }
%"class.icu_77::UnicodeString" = type { %"class.icu_77::Replaceable", %"union.icu_77::UnicodeString::StackBufferOrFields" }
%"class.icu_77::Replaceable" = type { %"class.icu_77::UObject" }
%"class.icu_77::UObject" = type { ptr }
%"union.icu_77::UnicodeString::StackBufferOrFields" = type { %struct.anon.0, [32 x i8] }
%struct.anon.0 = type { i16, i32, i32, ptr }
%"class.icu_77::UVector32" = type { %"class.icu_77::UObject", i32, i32, i32, ptr }
%"class.icu_77::UStack" = type { %"class.icu_77::UVector" }
%"class.icu_77::UVector" = type { %"class.icu_77::UObject", i32, i32, ptr, ptr, ptr }
%"class.icu_77::LocalPointer" = type { %"class.icu_77::LocalPointerBase" }
%"class.icu_77::LocalPointerBase" = type { ptr }

; Function Attrs: mustprogress nounwind uwtable
define linkonce_odr noundef zeroext i1 @_ZN6icu_777UVector10hasDeleterEv(ptr noundef nonnull align 8 dereferenceable(40) %0) #0 comdat align 2 {
  %2 = alloca ptr, align 8
  store ptr %0, ptr %2, align 8, !tbaa !159
  %3 = load ptr, ptr %2, align 8
  %4 = getelementptr inbounds nuw %"class.icu_77::UVector", ptr %3, i32 0, i32 4
  %5 = load ptr, ptr %4, align 8, !tbaa !202
  %6 = icmp ne ptr %5, null
  ret i1 %6
}

; Function Attrs: inlinehint mustprogress nounwind uwtable
define internal noundef signext i8 @_ZL9U_SUCCESS10UErrorCode(i32 noundef %0) #2 {
  %2 = alloca i32, align 4
  store i32 %0, ptr %2, align 4, !tbaa !15
  %3 = load i32, ptr %2, align 4, !tbaa !15
  %4 = icmp sle i32 %3, 0
  %5 = zext i1 %4 to i8
  ret i8 %5
}

; Function Attrs: mustprogress nounwind uwtable
define linkonce_odr void @_ZN6icu_7716LocalPointerBaseINS_10UnicodeSetEEC2EPS1_(ptr noundef nonnull align 8 dereferenceable(8) %0, ptr noundef %1) unnamed_addr #0 comdat align 2 {
  %3 = alloca ptr, align 8
  %4 = alloca ptr, align 8
  store ptr %0, ptr %3, align 8, !tbaa !179
  store ptr %1, ptr %4, align 8, !tbaa !96
  %5 = load ptr, ptr %3, align 8
  %6 = getelementptr inbounds nuw %"class.icu_77::LocalPointerBase", ptr %5, i32 0, i32 0
  %7 = load ptr, ptr %4, align 8, !tbaa !96
  store ptr %7, ptr %6, align 8, !tbaa !181
  ret void
}

; Function Attrs: inlinehint mustprogress uwtable
define linkonce_odr noundef ptr @_ZN6icu_776UStack4pushEPvR10UErrorCode(ptr noundef nonnull align 8 dereferenceable(40) %0, ptr noundef %1, ptr noundef nonnull align 4 dereferenceable(4) %2) #3 comdat align 2 {
  %4 = alloca ptr, align 8
  %5 = alloca ptr, align 8
  %6 = alloca ptr, align 8
  %7 = alloca ptr, align 8
  store ptr %0, ptr %5, align 8, !tbaa !175
  store ptr %1, ptr %6, align 8, !tbaa !22
  store ptr %2, ptr %7, align 8, !tbaa !22
  %8 = load ptr, ptr %5, align 8
  %9 = call noundef zeroext i1 @_ZN6icu_777UVector10hasDeleterEv(ptr noundef nonnull align 8 dereferenceable(40) %8)
  br i1 %9, label %10, label %22

10:                                               ; preds = %3
  %11 = load ptr, ptr %6, align 8, !tbaa !22
  %12 = load ptr, ptr %7, align 8, !tbaa !22
  call void @_ZN6icu_777UVector12adoptElementEPvR10UErrorCode(ptr noundef nonnull align 8 dereferenceable(40) %8, ptr noundef %11, ptr noundef nonnull align 4 dereferenceable(4) %12)
  %13 = load ptr, ptr %7, align 8, !tbaa !22
  %14 = load i32, ptr %13, align 4, !tbaa !15
  %15 = call noundef signext i8 @_ZL9U_SUCCESS10UErrorCode(i32 noundef %14)
  %16 = icmp ne i8 %15, 0
  br i1 %16, label %17, label %19

17:                                               ; preds = %10
  %18 = load ptr, ptr %6, align 8, !tbaa !22
  br label %20

19:                                               ; preds = %10
  br label %20

20:                                               ; preds = %19, %17
  %21 = phi ptr [ %18, %17 ], [ null, %19 ]
  store ptr %21, ptr %4, align 8
  br label %26

22:                                               ; preds = %3
  %23 = load ptr, ptr %6, align 8, !tbaa !22
  %24 = load ptr, ptr %7, align 8, !tbaa !22
  call void @_ZN6icu_777UVector10addElementEPvR10UErrorCode(ptr noundef nonnull align 8 dereferenceable(40) %8, ptr noundef %23, ptr noundef nonnull align 4 dereferenceable(4) %24)
  %25 = load ptr, ptr %6, align 8, !tbaa !22
  store ptr %25, ptr %4, align 8
  br label %26

26:                                               ; preds = %22, %20
  %27 = load ptr, ptr %4, align 8
  ret ptr %27
}

; Function Attrs: mustprogress nounwind uwtable
define linkonce_odr noundef ptr @_ZN6icu_7716LocalPointerBaseINS_10UnicodeSetEE6orphanEv(ptr noundef nonnull align 8 dereferenceable(8) %0) #0 comdat align 2 {
  %2 = alloca ptr, align 8
  %3 = alloca ptr, align 8
  store ptr %0, ptr %2, align 8, !tbaa !179
  %4 = load ptr, ptr %2, align 8
  call void @llvm.lifetime.start.p0(i64 8, ptr %3) #13
  %5 = getelementptr inbounds nuw %"class.icu_77::LocalPointerBase", ptr %4, i32 0, i32 0
  %6 = load ptr, ptr %5, align 8, !tbaa !181
  store ptr %6, ptr %3, align 8, !tbaa !96
  %7 = getelementptr inbounds nuw %"class.icu_77::LocalPointerBase", ptr %4, i32 0, i32 0
  store ptr null, ptr %7, align 8, !tbaa !181
  %8 = load ptr, ptr %3, align 8, !tbaa !96
  call void @llvm.lifetime.end.p0(i64 8, ptr %3) #13
  ret ptr %8
}

; Function Attrs: mustprogress uwtable
define linkonce_odr void @_ZN6icu_7712LocalPointerINS_10UnicodeSetEEC2EPS1_R10UErrorCode(ptr noundef nonnull align 8 dereferenceable(8) %0, ptr noundef %1, ptr noundef nonnull align 4 dereferenceable(4) %2) unnamed_addr #1 comdat align 2 {
  %4 = alloca ptr, align 8
  %5 = alloca ptr, align 8
  %6 = alloca ptr, align 8
  store ptr %0, ptr %4, align 8, !tbaa !177
  store ptr %1, ptr %5, align 8, !tbaa !96
  store ptr %2, ptr %6, align 8, !tbaa !22
  %7 = load ptr, ptr %4, align 8
  %8 = load ptr, ptr %5, align 8, !tbaa !96
  call void @_ZN6icu_7716LocalPointerBaseINS_10UnicodeSetEEC2EPS1_(ptr noundef nonnull align 8 dereferenceable(8) %7, ptr noundef %8)
  %9 = load ptr, ptr %5, align 8, !tbaa !96
  %10 = icmp eq ptr %9, null
  br i1 %10, label %11, label %18

11:                                               ; preds = %3
  %12 = load ptr, ptr %6, align 8, !tbaa !22
  %13 = load i32, ptr %12, align 4, !tbaa !15
  %14 = call noundef signext i8 @_ZL9U_SUCCESS10UErrorCode(i32 noundef %13)
  %15 = icmp ne i8 %14, 0
  br i1 %15, label %16, label %18

16:                                               ; preds = %11
  %17 = load ptr, ptr %6, align 8, !tbaa !22
  store i32 7, ptr %17, align 4, !tbaa !15
  br label %18

18:                                               ; preds = %16, %11, %3
  ret void
}

; Function Attrs: inlinehint mustprogress uwtable
define linkonce_odr noundef i32 @_ZN6icu_776UStack4pushEiR10UErrorCode(ptr noundef nonnull align 8 dereferenceable(40) %0, i32 noundef %1, ptr noundef nonnull align 4 dereferenceable(4) %2) #3 comdat align 2 {
  %4 = alloca ptr, align 8
  %5 = alloca i32, align 4
  %6 = alloca ptr, align 8
  store ptr %0, ptr %4, align 8, !tbaa !175
  store i32 %1, ptr %5, align 4, !tbaa !14
  store ptr %2, ptr %6, align 8, !tbaa !22
  %7 = load ptr, ptr %4, align 8
  %8 = load i32, ptr %5, align 4, !tbaa !14
  %9 = load ptr, ptr %6, align 8, !tbaa !22
  call void @_ZN6icu_777UVector10addElementEiR10UErrorCode(ptr noundef nonnull align 8 dereferenceable(40) %7, i32 noundef %8, ptr noundef nonnull align 4 dereferenceable(4) %9)
  %10 = load i32, ptr %5, align 4, !tbaa !14
  ret i32 %10
}

; Function Attrs: mustprogress uwtable
define void @_ZN6icu_7712RegexCompile9setPushOpEi(ptr noundef nonnull align 8 dereferenceable(512) %0, i32 noundef %1) #1 align 2 personality ptr @__gxx_personality_v0 {
  %3 = alloca ptr, align 8
  %4 = alloca i32, align 4
  %5 = alloca %"class.icu_77::LocalPointer", align 8
  %6 = alloca i1, align 1
  %7 = alloca ptr, align 8
  %8 = alloca i32, align 4
  store ptr %0, ptr %3, align 8, !tbaa !23
  store i32 %1, ptr %4, align 4, !tbaa !14
  %9 = load ptr, ptr %3, align 8
  %10 = load i32, ptr %4, align 4, !tbaa !14
  call void @_ZN6icu_7712RegexCompile7setEvalEi(ptr noundef nonnull align 8 dereferenceable(512) %9, i32 noundef %10)
  %11 = getelementptr inbounds nuw %"class.icu_77::RegexCompile", ptr %9, i32 0, i32 26
  %12 = load i32, ptr %4, align 4, !tbaa !14
  %13 = getelementptr inbounds nuw %"class.icu_77::RegexCompile", ptr %9, i32 0, i32 1
  %14 = load ptr, ptr %13, align 8, !tbaa !29
  %15 = call noundef i32 @_ZN6icu_776UStack4pushEiR10UErrorCode(ptr noundef nonnull align 8 dereferenceable(40) %11, i32 noundef %12, ptr noundef nonnull align 4 dereferenceable(4) %14)
  call void @llvm.lifetime.start.p0(i64 8, ptr %5) #13
  %16 = call noundef ptr @_ZN6icu_777UMemorynwEm(i64 noundef 200) #13
  %17 = icmp eq ptr %16, null
  store i1 false, ptr %6, align 1
  br i1 %17, label %20, label %18

18:                                               ; preds = %2
  store i1 true, ptr %6, align 1
  invoke void @_ZN6icu_7710UnicodeSetC1Ev(ptr noundef nonnull align 8 dereferenceable(200) %16)
          to label %19 unwind label %31

19:                                               ; preds = %18
  br label %20

20:                                               ; preds = %19, %2
  %21 = phi ptr [ %16, %19 ], [ null, %2 ]
  %22 = getelementptr inbounds nuw %"class.icu_77::RegexCompile", ptr %9, i32 0, i32 1
  %23 = load ptr, ptr %22, align 8, !tbaa !29
  call void @_ZN6icu_7712LocalPointerINS_10UnicodeSetEEC2EPS1_R10UErrorCode(ptr noundef nonnull align 8 dereferenceable(8) %5, ptr noundef %21, ptr noundef nonnull align 4 dereferenceable(4) %23)
  %24 = getelementptr inbounds nuw %"class.icu_77::RegexCompile", ptr %9, i32 0, i32 25
  %25 = invoke noundef ptr @_ZN6icu_7716LocalPointerBaseINS_10UnicodeSetEE6orphanEv(ptr noundef nonnull align 8 dereferenceable(8) %5)
          to label %26 unwind label %38

26:                                               ; preds = %20
  %27 = getelementptr inbounds nuw %"class.icu_77::RegexCompile", ptr %9, i32 0, i32 1
  %28 = load ptr, ptr %27, align 8, !tbaa !29
  %29 = invoke noundef ptr @_ZN6icu_776UStack4pushEPvR10UErrorCode(ptr noundef nonnull align 8 dereferenceable(40) %24, ptr noundef %25, ptr noundef nonnull align 4 dereferenceable(4) %28)
          to label %30 unwind label %38

30:                                               ; preds = %26
  call void @_ZN6icu_7712LocalPointerINS_10UnicodeSetEED2Ev(ptr noundef nonnull align 8 dereferenceable(8) %5) #13
  call void @llvm.lifetime.end.p0(i64 8, ptr %5) #13
  ret void

31:                                               ; preds = %18
  %32 = landingpad { ptr, i32 }
          cleanup
  %33 = extractvalue { ptr, i32 } %32, 0
  store ptr %33, ptr %7, align 8
  %34 = extractvalue { ptr, i32 } %32, 1
  store i32 %34, ptr %8, align 4
  %35 = load i1, ptr %6, align 1
  br i1 %35, label %36, label %37

36:                                               ; preds = %31
  call void @_ZN6icu_777UMemorydlEPv(ptr noundef %16) #13
  br label %37

37:                                               ; preds = %36, %31
  br label %42

38:                                               ; preds = %26, %20
  %39 = landingpad { ptr, i32 }
          cleanup
  %40 = extractvalue { ptr, i32 } %39, 0
  store ptr %40, ptr %7, align 8
  %41 = extractvalue { ptr, i32 } %39, 1
  store i32 %41, ptr %8, align 4
  call void @_ZN6icu_7712LocalPointerINS_10UnicodeSetEED2Ev(ptr noundef nonnull align 8 dereferenceable(8) %5) #13
  br label %42

42:                                               ; preds = %38, %37
  call void @llvm.lifetime.end.p0(i64 8, ptr %5) #13
  br label %43

43:                                               ; preds = %42
  %44 = load ptr, ptr %7, align 8
  %45 = load i32, ptr %8, align 4
  %46 = insertvalue { ptr, i32 } poison, ptr %44, 0
  %47 = insertvalue { ptr, i32 } %46, i32 %45, 1
  resume { ptr, i32 } %47
}