; Function Attrs: mustprogress uwtable
define void @_ZN6icu_7712RegexCompile9setPushOpEi(ptr noundef nonnull align 8 dereferenceable(512) %0, i32 noundef %1) local_unnamed_addr #1 align 2 personality ptr @__gxx_personality_v0 {
  %3 = alloca %"class.icu_77::LocalPointer", align 8
  tail call void @_ZN6icu_7712RegexCompile7setEvalEi(ptr noundef nonnull align 8 dereferenceable(512) %0, i32 noundef %1)
  %4 = getelementptr inbounds nuw i8, ptr %0, i64 456
  %5 = getelementptr inbounds nuw i8, ptr %0, i64 8
  %6 = load ptr, ptr %5, align 8, !tbaa !18
  tail call void @_ZN6icu_777UVector10addElementEiR10UErrorCode(ptr noundef nonnull align 8 dereferenceable(40) %4, i32 noundef %1, ptr noundef nonnull align 4 dereferenceable(4) %6)
  call void @llvm.lifetime.start.p0(i64 8, ptr nonnull %3) #15
  %7 = tail call noundef ptr @_ZN6icu_777UMemorynwEm(i64 noundef 200) #15
  %8 = icmp eq ptr %7, null
  br i1 %8, label %11, label %9

9:                                                ; preds = %2
  invoke void @_ZN6icu_7710UnicodeSetC1Ev(ptr noundef nonnull align 8 dereferenceable(200) %7)
          to label %.thread unwind label %22

.thread:                                          ; preds = %9
  %10 = load ptr, ptr %5, align 8, !tbaa !18
  br label %_ZN6icu_7712LocalPointerINS_10UnicodeSetEEC2EPS1_R10UErrorCode.exit

11:                                               ; preds = %2
  %12 = load ptr, ptr %5, align 8, !tbaa !18
  %13 = load i32, ptr %12, align 4
  %14 = icmp sgt i32 %13, 0
  br i1 %14, label %_ZN6icu_7712LocalPointerINS_10UnicodeSetEEC2EPS1_R10UErrorCode.exit, label %15

15:                                               ; preds = %11
  store i32 7, ptr %12, align 4, !tbaa !13
  br label %_ZN6icu_7712LocalPointerINS_10UnicodeSetEEC2EPS1_R10UErrorCode.exit

_ZN6icu_7712LocalPointerINS_10UnicodeSetEEC2EPS1_R10UErrorCode.exit: ; preds = %.thread, %11, %15
  %16 = phi ptr [ %10, %.thread ], [ %12, %11 ], [ %12, %15 ]
  %17 = getelementptr inbounds nuw i8, ptr %0, i64 416
  store ptr null, ptr %3, align 8, !tbaa !129
  %18 = getelementptr inbounds nuw i8, ptr %0, i64 440
  %19 = load ptr, ptr %18, align 8, !tbaa !154
  %.not9.i = icmp eq ptr %19, null
  br i1 %.not9.i, label %21, label %20

20:                                               ; preds = %_ZN6icu_7712LocalPointerINS_10UnicodeSetEEC2EPS1_R10UErrorCode.exit
  invoke void @_ZN6icu_777UVector12adoptElementEPvR10UErrorCode(ptr noundef nonnull align 8 dereferenceable(40) %17, ptr noundef %7, ptr noundef nonnull align 4 dereferenceable(4) %16)
          to label %_ZN6icu_7712LocalPointerINS_10UnicodeSetEED2Ev.exit unwind label %24

21:                                               ; preds = %_ZN6icu_7712LocalPointerINS_10UnicodeSetEEC2EPS1_R10UErrorCode.exit
  invoke void @_ZN6icu_777UVector10addElementEPvR10UErrorCode(ptr noundef nonnull align 8 dereferenceable(40) %17, ptr noundef %7, ptr noundef nonnull align 4 dereferenceable(4) %16)
          to label %_ZN6icu_7712LocalPointerINS_10UnicodeSetEED2Ev.exit unwind label %24

_ZN6icu_7712LocalPointerINS_10UnicodeSetEED2Ev.exit: ; preds = %21, %20
  call void @llvm.lifetime.end.p0(i64 8, ptr nonnull %3) #15
  ret void

22:                                               ; preds = %9
  %23 = landingpad { ptr, i32 }
          cleanup
  tail call void @_ZN6icu_777UMemorydlEPv(ptr noundef nonnull %7) #15
  br label %26

24:                                               ; preds = %21, %20
  %25 = landingpad { ptr, i32 }
          cleanup
  call void @_ZN6icu_7712LocalPointerINS_10UnicodeSetEED2Ev(ptr noundef nonnull align 8 dereferenceable(8) %3) #15
  br label %26

26:                                               ; preds = %22, %24
  %.pn = phi { ptr, i32 } [ %25, %24 ], [ %23, %22 ]
  call void @llvm.lifetime.end.p0(i64 8, ptr nonnull %3) #15
  resume { ptr, i32 } %.pn
}